target datalayout = "e-m:e-p270:32:32-p271:32:32-p272:64:64-i64:64-i128:128-f80:128-n8:16:32:64-S128"
target triple = "x86_64-unknown-linux-gnu"

%"class.net::QuicConfigValue" = type { ptr, i32, i32 }
%"class.net::QuicNegotiableValue" = type <{ %"class.net::QuicConfigValue", i8, [7 x i8] }>
%"class.net::QuicNegotiableValue.base" = type <{ %"class.net::QuicConfigValue", i8 }>
%"class.net::QuicNegotiableTag" = type <{ %"class.net::QuicNegotiableValue.base", [3 x i8], i32, %"class.std::vector", i32, [4 x i8] }>
%"class.std::vector" = type { %"struct.std::_Vector_base" }
%"struct.std::_Vector_base" = type { %"struct.std::_Vector_base<unsigned int, std::allocator<unsigned int>>::_Vector_impl" }
%"struct.std::_Vector_base<unsigned int, std::allocator<unsigned int>>::_Vector_impl" = type { %"struct.std::_Vector_base<unsigned int, std::allocator<unsigned int>>::_Vector_impl_data" }
%"struct.std::_Vector_base<unsigned int, std::allocator<unsigned int>>::_Vector_impl_data" = type { ptr, ptr, ptr }

@_ZTVN3net15QuicConfigValueE = dso_local unnamed_addr constant { [6 x ptr] } { [6 x ptr] [ptr null, ptr @_ZTIN3net15QuicConfigValueE, ptr @_ZN3net15QuicConfigValueD1Ev, ptr @_ZN3net15QuicConfigValueD0Ev, ptr @__cxa_pure_virtual, ptr @__cxa_pure_virtual] }, align 8
@_ZTVN3net19QuicNegotiableValueE = dso_local unnamed_addr constant { [6 x ptr] } { [6 x ptr] [ptr null, ptr @_ZTIN3net19QuicNegotiableValueE, ptr @_ZN3net19QuicNegotiableValueD1Ev, ptr @_ZN3net19QuicNegotiableValueD0Ev, ptr @__cxa_pure_virtual, ptr @__cxa_pure_virtual] }, align 8

; Function Attrs: mustprogress nounwind uwtable
define linkonce_odr dso_local void @_ZNSt15__new_allocatorIjEC2Ev(ptr noundef nonnull align 1 dereferenceable(1) %this) unnamed_addr #3 comdat align 2 {
entry:
  %this.addr = alloca ptr, align 8
  store ptr %this, ptr %this.addr, align 8
  ret void
}

; Function Attrs: mustprogress nounwind uwtable
define linkonce_odr dso_local void @_ZNSt12_Vector_baseIjSaIjEE17_Vector_impl_dataC2Ev(ptr noundef nonnull align 8 dereferenceable(24) %this) unnamed_addr #3 comdat align 2 {
entry:
  %this.addr = alloca ptr, align 8
  store ptr %this, ptr %this.addr, align 8
  %this1 = load ptr, ptr %this.addr, align 8
  %_M_start = getelementptr inbounds %"struct.std::_Vector_base<unsigned int, std::allocator<unsigned int>>::_Vector_impl_data", ptr %this1, i32 0, i32 0
  store ptr null, ptr %_M_start, align 8
  %_M_finish = getelementptr inbounds %"struct.std::_Vector_base<unsigned int, std::allocator<unsigned int>>::_Vector_impl_data", ptr %this1, i32 0, i32 1
  store ptr null, ptr %_M_finish, align 8
  %_M_end_of_storage = getelementptr inbounds %"struct.std::_Vector_base<unsigned int, std::allocator<unsigned int>>::_Vector_impl_data", ptr %this1, i32 0, i32 2
  store ptr null, ptr %_M_end_of_storage, align 8
  ret void
}

; Function Attrs: mustprogress nounwind uwtable
define linkonce_odr dso_local void @_ZNSaIjEC2Ev(ptr noundef nonnull align 1 dereferenceable(1) %this) unnamed_addr #3 comdat align 2 {
entry:
  %this.addr = alloca ptr, align 8
  store ptr %this, ptr %this.addr, align 8
  %this1 = load ptr, ptr %this.addr, align 8
  call void @_ZNSt15__new_allocatorIjEC2Ev(ptr noundef nonnull align 1 dereferenceable(1) %this1) #11
  ret void
}

; Function Attrs: mustprogress nounwind uwtable
define linkonce_odr dso_local void @_ZNSt12_Vector_baseIjSaIjEE12_Vector_implC2Ev(ptr noundef nonnull align 8 dereferenceable(24) %this) unnamed_addr #3 comdat align 2 {
entry:
  %this.addr = alloca ptr, align 8
  store ptr %this, ptr %this.addr, align 8
  %this1 = load ptr, ptr %this.addr, align 8
  call void @_ZNSaIjEC2Ev(ptr noundef nonnull align 1 dereferenceable(1) %this1) #11
  call void @_ZNSt12_Vector_baseIjSaIjEE17_Vector_impl_dataC2Ev(ptr noundef nonnull align 8 dereferenceable(24) %this1) #11
  ret void
}

; Function Attrs: mustprogress nounwind uwtable
define linkonce_odr dso_local void @_ZNSt12_Vector_baseIjSaIjEEC2Ev(ptr noundef nonnull align 8 dereferenceable(24) %this) unnamed_addr #3 comdat align 2 {
entry:
  %this.addr = alloca ptr, align 8
  store ptr %this, ptr %this.addr, align 8
  %this1 = load ptr, ptr %this.addr, align 8
  %_M_impl = getelementptr inbounds %"struct.std::_Vector_base", ptr %this1, i32 0, i32 0
  call void @_ZNSt12_Vector_baseIjSaIjEE12_Vector_implC2Ev(ptr noundef nonnull align 8 dereferenceable(24) %_M_impl) #11
  ret void
}

; Function Attrs: mustprogress nounwind uwtable
define dso_local void @_ZN3net15QuicConfigValueC2EjNS_18QuicConfigPresenceE(ptr noundef nonnull align 8 dereferenceable(16) %this, i32 noundef %tag, i32 noundef %presence) unnamed_addr #3 align 2 {
entry:
  %this.addr = alloca ptr, align 8
  %tag.addr = alloca i32, align 4
  %presence.addr = alloca i32, align 4
  store ptr %this, ptr %this.addr, align 8
  store i32 %tag, ptr %tag.addr, align 4
  store i32 %presence, ptr %presence.addr, align 4
  %this1 = load ptr, ptr %this.addr, align 8
  store ptr getelementptr inbounds ({ [6 x ptr] }, ptr @_ZTVN3net15QuicConfigValueE, i32 0, i32 0, i32 2), ptr %this1, align 8
  %tag_ = getelementptr inbounds %"class.net::QuicConfigValue", ptr %this1, i32 0, i32 1
  %0 = load i32, ptr %tag.addr, align 4
  store i32 %0, ptr %tag_, align 8
  %presence_ = getelementptr inbounds %"class.net::QuicConfigValue", ptr %this1, i32 0, i32 2
  %1 = load i32, ptr %presence.addr, align 4
  store i32 %1, ptr %presence_, align 4
  ret void
}

; Function Attrs: mustprogress nounwind uwtable
define linkonce_odr dso_local void @_ZNSt6vectorIjSaIjEEC2Ev(ptr noundef nonnull align 8 dereferenceable(24) %this) unnamed_addr #3 comdat align 2 {
entry:
  %this.addr = alloca ptr, align 8
  store ptr %this, ptr %this.addr, align 8
  %this1 = load ptr, ptr %this.addr, align 8
  call void @_ZNSt12_Vector_baseIjSaIjEEC2Ev(ptr noundef nonnull align 8 dereferenceable(24) %this1) #11
  ret void
}

; Function Attrs: mustprogress nounwind uwtable
define dso_local void @_ZN3net19QuicNegotiableValueC2EjNS_18QuicConfigPresenceE(ptr noundef nonnull align 8 dereferenceable(17) %this, i32 noundef %tag, i32 noundef %presence) unnamed_addr #3 align 2 {
entry:
  %this.addr = alloca ptr, align 8
  %tag.addr = alloca i32, align 4
  %presence.addr = alloca i32, align 4
  store ptr %this, ptr %this.addr, align 8
  store i32 %tag, ptr %tag.addr, align 4
  store i32 %presence, ptr %presence.addr, align 4
  %this1 = load ptr, ptr %this.addr, align 8
  %0 = load i32, ptr %tag.addr, align 4
  %1 = load i32, ptr %presence.addr, align 4
  call void @_ZN3net15QuicConfigValueC2EjNS_18QuicConfigPresenceE(ptr noundef nonnull align 8 dereferenceable(16) %this1, i32 noundef %0, i32 noundef %1)
  store ptr getelementptr inbounds ({ [6 x ptr] }, ptr @_ZTVN3net19QuicNegotiableValueE, i32 0, i32 0, i32 2), ptr %this1, align 8
  %negotiated_ = getelementptr inbounds %"class.net::QuicNegotiableValue", ptr %this1, i32 0, i32 1
  store i8 0, ptr %negotiated_, align 8
  ret void
}

; Function Attrs: mustprogress nounwind uwtable
define dso_local void @_ZN3net17QuicNegotiableTagC2EjNS_18QuicConfigPresenceE(ptr noundef nonnull align 8 dereferenceable(52) %this, i32 noundef %tag, i32 noundef %presence) unnamed_addr #3 align 2 {
entry:
  %this.addr = alloca ptr, align 8
  %tag.addr = alloca i32, align 4
  %presence.addr = alloca i32, align 4
  store ptr %this, ptr %this.addr, align 8
  store i32 %tag, ptr %tag.addr, align 4
  store i32 %presence, ptr %presence.addr, align 4
  %this1 = load ptr, ptr %this.addr, align 8
  %0 = load i32, ptr %tag.addr, align 4
  %1 = load i32, ptr %presence.addr, align 4
  call void @_ZN3net19QuicNegotiableValueC2EjNS_18QuicConfigPresenceE(ptr noundef nonnull align 8 dereferenceable(17) %this1, i32 noundef %0, i32 noundef %1)
  store ptr getelementptr inbounds ({ [6 x ptr] }, ptr @_ZTVN3net17QuicNegotiableTagE, i32 0, i32 0, i32 2), ptr %this1, align 8
  %negotiated_tag_ = getelementptr inbounds %"class.net::QuicNegotiableTag", ptr %this1, i32 0, i32 2
  store i32 0, ptr %negotiated_tag_, align 4
  %possible_values_ = getelementptr inbounds %"class.net::QuicNegotiableTag", ptr %this1, i32 0, i32 3
  call void @_ZNSt6vectorIjSaIjEEC2Ev(ptr noundef nonnull align 8 dereferenceable(24) %possible_values_) #11
  %default_value_ = getelementptr inbounds %"class.net::QuicNegotiableTag", ptr %this1, i32 0, i32 4
  store i32 0, ptr %default_value_, align 8
  ret void
}